---
triple:          'arm64-apple-darwin'
binary-path:     '/Users/hbasriuzun/Documents/GitHub/My_code2/main2'
relocations:
  - { offsetInCU: 0x79E, offset: 0x79E, size: 0x8, addend: 0x0, symName: __ZNSt3__16chronogtB8ue170006IxNS_5ratioILl1ELl1EEExS3_EEbRKNS0_8durationIT_T0_EERKNS4_IT1_T2_EE, symObjAddr: 0x730, symBinAddr: 0x1000036A4, symSize: 0x30 }
  - { offsetInCU: 0x7FF, offset: 0x7FF, size: 0x8, addend: 0x0, symName: __ZNSt3__16chronoltB8ue170006IxNS_5ratioILl1ELl1EEEeS3_EEbRKNS0_8durationIT_T0_EERKNS4_IT1_T2_EE, symObjAddr: 0x79C, symBinAddr: 0x100003710, symSize: 0x34 }
  - { offsetInCU: 0x860, offset: 0x860, size: 0x8, addend: 0x0, symName: __ZNSt3__16chrono13duration_castB8ue170006INS0_8durationIxNS_5ratioILl1ELl1000000000EEEEExNS3_ILl1ELl1EEEEENS_9enable_ifIXsr13__is_durationIT_EE5valueES8_E4typeERKNS2_IT0_T1_EE, symObjAddr: 0x7D0, symBinAddr: 0x100003744, symSize: 0x30 }
  - { offsetInCU: 0x8A7, offset: 0x8A7, size: 0x8, addend: 0x0, symName: __ZNSt3__16chronoltB8ue170006IxNS_5ratioILl1ELl1000000000EEExNS2_ILl1ELl1EEEEEbRKNS0_8durationIT_T0_EERKNS5_IT1_T2_EE, symObjAddr: 0x800, symBinAddr: 0x100003774, symSize: 0x34 }
  - { offsetInCU: 0x908, offset: 0x908, size: 0x8, addend: 0x0, symName: __ZNSt3__16chronoltB8ue170006IxNS_5ratioILl1ELl1EEExS3_EEbRKNS0_8durationIT_T0_EERKNS4_IT1_T2_EE, symObjAddr: 0x890, symBinAddr: 0x100003804, symSize: 0x34 }
  - { offsetInCU: 0x9E6, offset: 0x9E6, size: 0x8, addend: 0x0, symName: __ZNSt3__16chrono13duration_castB8ue170006INS0_8durationIeNS_5ratioILl1ELl1EEEEExS4_EENS_9enable_ifIXsr13__is_durationIT_EE5valueES7_E4typeERKNS2_IT0_T1_EE, symObjAddr: 0xA9C, symBinAddr: 0x100003A10, symSize: 0x30 }
  - { offsetInCU: 0x3D91, offset: 0x3D91, size: 0x8, addend: 0x0, symName: __ZNSt3__111this_thread9sleep_forB8ue170006IxNS_5ratioILl1ELl1EEEEEvRKNS_6chrono8durationIT_T0_EE, symObjAddr: 0x2F8, symBinAddr: 0x10000326C, symSize: 0xBC }
  - { offsetInCU: 0x3E12, offset: 0x3E12, size: 0x8, addend: 0x0, symName: __ZNSt3__112__to_addressB8ue170006IKcEEPT_S3_, symObjAddr: 0x440, symBinAddr: 0x1000033B4, symSize: 0x14 }
  - { offsetInCU: 0x3E7A, offset: 0x3E7A, size: 0x8, addend: 0x0, symName: __ZNSt3__118__constexpr_strlenB8ue170006EPKc, symObjAddr: 0x700, symBinAddr: 0x100003674, symSize: 0x24 }
  - { offsetInCU: 0x4211, offset: 0x4211, size: 0x8, addend: 0x0, symName: __ZNKSt3__16chrono13__duration_ltINS0_8durationIxNS_5ratioILl1ELl1EEEEENS2_IeS4_EEEclB8ue170006ERKS5_RKS6_, symObjAddr: 0x994, symBinAddr: 0x100003908, symSize: 0x6C }
  - { offsetInCU: 0x428C, offset: 0x428C, size: 0x8, addend: 0x0, symName: __ZNKSt3__16chrono15__duration_castINS0_8durationIxNS_5ratioILl1ELl1EEEEENS2_IxNS3_ILl1ELl1000000000EEEEENS3_ILl1000000000ELl1EEELb0ELb1EEclB8ue170006ERKS5_, symObjAddr: 0xB74, symBinAddr: 0x100003AE8, symSize: 0x4C }
  - { offsetInCU: 0x42D3, offset: 0x42D3, size: 0x8, addend: 0x0, symName: __ZNKSt3__16chrono13__duration_ltINS0_8durationIxNS_5ratioILl1ELl1000000000EEEEENS2_IxNS3_ILl1ELl1EEEEEEclB8ue170006ERKS5_RKS7_, symObjAddr: 0xC24, symBinAddr: 0x100003B98, symSize: 0x6C }
  - { offsetInCU: 0x6594, offset: 0x6594, size: 0x8, addend: 0x0, symName: __Z7openUrlRKNSt3__112basic_stringIcNS_11char_traitsIcEENS_9allocatorIcEEEE, symObjAddr: 0x0, symBinAddr: 0x100002F74, symSize: 0x6C }
  - { offsetInCU: 0x6733, offset: 0x6733, size: 0x8, addend: 0x0, symName: __ZNKSt3__112basic_stringIcNS_11char_traitsIcEENS_9allocatorIcEEE5c_strB8ue170006Ev, symObjAddr: 0x6C, symBinAddr: 0x100002FE0, symSize: 0x24 }
  - { offsetInCU: 0x6757, offset: 0x6757, size: 0x8, addend: 0x0, symName: __Z12closeBrowserv, symObjAddr: 0x90, symBinAddr: 0x100003004, symSize: 0x64 }
  - { offsetInCU: 0x6784, offset: 0x6784, size: 0x8, addend: 0x0, symName: __ZNSt3__112basic_stringIcNS_11char_traitsIcEENS_9allocatorIcEEEC1B8ue170006ILi0EEEPKc, symObjAddr: 0xF4, symBinAddr: 0x100003068, symSize: 0x34 }
  - { offsetInCU: 0x67C1, offset: 0x67C1, size: 0x8, addend: 0x0, symName: _main, symObjAddr: 0x128, symBinAddr: 0x10000309C, symSize: 0x1D0 }
  - { offsetInCU: 0x6855, offset: 0x6855, size: 0x8, addend: 0x0, symName: __ZNSt3__16chrono8durationIxNS_5ratioILl1ELl1EEEEC1B8ue170006IiEERKT_PNS_9enable_ifIXaasr14is_convertibleIS8_xEE5valueooL_ZNS_17integral_constantIbLb0EE5valueEEntsr23treat_as_floating_pointIS6_EE5valueEvE4typeE, symObjAddr: 0x3B4, symBinAddr: 0x100003328, symSize: 0x3C }
  - { offsetInCU: 0x689F, offset: 0x689F, size: 0x8, addend: 0x0, symName: __ZNSt3__16chrono8durationIxNS_5ratioILl1ELl1EEEEC2B8ue170006IiEERKT_PNS_9enable_ifIXaasr14is_convertibleIS8_xEE5valueooL_ZNS_17integral_constantIbLb0EE5valueEEntsr23treat_as_floating_pointIS6_EE5valueEvE4typeE, symObjAddr: 0x3F0, symBinAddr: 0x100003364, symSize: 0x28 }
  - { offsetInCU: 0x68E9, offset: 0x68E9, size: 0x8, addend: 0x0, symName: __ZNKSt3__112basic_stringIcNS_11char_traitsIcEENS_9allocatorIcEEE4dataB8ue170006Ev, symObjAddr: 0x418, symBinAddr: 0x10000338C, symSize: 0x28 }
  - { offsetInCU: 0x690D, offset: 0x690D, size: 0x8, addend: 0x0, symName: __ZNKSt3__112basic_stringIcNS_11char_traitsIcEENS_9allocatorIcEEE13__get_pointerB8ue170006Ev, symObjAddr: 0x454, symBinAddr: 0x1000033C8, symSize: 0x54 }
  - { offsetInCU: 0x6931, offset: 0x6931, size: 0x8, addend: 0x0, symName: __ZNKSt3__112basic_stringIcNS_11char_traitsIcEENS_9allocatorIcEEE9__is_longB8ue170006Ev, symObjAddr: 0x4A8, symBinAddr: 0x10000341C, symSize: 0x38 }
  - { offsetInCU: 0x6955, offset: 0x6955, size: 0x8, addend: 0x0, symName: __ZNKSt3__112basic_stringIcNS_11char_traitsIcEENS_9allocatorIcEEE18__get_long_pointerB8ue170006Ev, symObjAddr: 0x4E0, symBinAddr: 0x100003454, symSize: 0x28 }
  - { offsetInCU: 0x6979, offset: 0x6979, size: 0x8, addend: 0x0, symName: __ZNKSt3__112basic_stringIcNS_11char_traitsIcEENS_9allocatorIcEEE19__get_short_pointerB8ue170006Ev, symObjAddr: 0x508, symBinAddr: 0x10000347C, symSize: 0x28 }
  - { offsetInCU: 0x699D, offset: 0x699D, size: 0x8, addend: 0x0, symName: __ZNKSt3__117__compressed_pairINS_12basic_stringIcNS_11char_traitsIcEENS_9allocatorIcEEE5__repES5_E5firstB8ue170006Ev, symObjAddr: 0x530, symBinAddr: 0x1000034A4, symSize: 0x24 }
  - { offsetInCU: 0x69C1, offset: 0x69C1, size: 0x8, addend: 0x0, symName: __ZNKSt3__122__compressed_pair_elemINS_12basic_stringIcNS_11char_traitsIcEENS_9allocatorIcEEE5__repELi0ELb0EE5__getB8ue170006Ev, symObjAddr: 0x554, symBinAddr: 0x1000034C8, symSize: 0x14 }
  - { offsetInCU: 0x69E5, offset: 0x69E5, size: 0x8, addend: 0x0, symName: __ZNSt3__114pointer_traitsIPKcE10pointer_toB8ue170006ERS1_, symObjAddr: 0x568, symBinAddr: 0x1000034DC, symSize: 0x14 }
  - { offsetInCU: 0x6A07, offset: 0x6A07, size: 0x8, addend: 0x0, symName: __ZNSt3__112basic_stringIcNS_11char_traitsIcEENS_9allocatorIcEEEC2B8ue170006ILi0EEEPKc, symObjAddr: 0x57C, symBinAddr: 0x1000034F0, symSize: 0x58 }
  - { offsetInCU: 0x6A49, offset: 0x6A49, size: 0x8, addend: 0x0, symName: __ZNSt3__117__compressed_pairINS_12basic_stringIcNS_11char_traitsIcEENS_9allocatorIcEEE5__repES5_EC1B8ue170006INS_18__default_init_tagESA_EEOT_OT0_, symObjAddr: 0x5D4, symBinAddr: 0x100003548, symSize: 0x3C }
  - { offsetInCU: 0x6A9F, offset: 0x6A9F, size: 0x8, addend: 0x0, symName: __ZNSt3__111char_traitsIcE6lengthB8ue170006EPKc, symObjAddr: 0x610, symBinAddr: 0x100003584, symSize: 0x34 }
  - { offsetInCU: 0x6AC1, offset: 0x6AC1, size: 0x8, addend: 0x0, symName: __ZNSt3__117__compressed_pairINS_12basic_stringIcNS_11char_traitsIcEENS_9allocatorIcEEE5__repES5_EC2B8ue170006INS_18__default_init_tagESA_EEOT_OT0_, symObjAddr: 0x644, symBinAddr: 0x1000035B8, symSize: 0x3C }
  - { offsetInCU: 0x6B17, offset: 0x6B17, size: 0x8, addend: 0x0, symName: __ZNSt3__122__compressed_pair_elemINS_12basic_stringIcNS_11char_traitsIcEENS_9allocatorIcEEE5__repELi0ELb0EEC2B8ue170006ENS_18__default_init_tagE, symObjAddr: 0x680, symBinAddr: 0x1000035F4, symSize: 0x14 }
  - { offsetInCU: 0x6B49, offset: 0x6B49, size: 0x8, addend: 0x0, symName: __ZNSt3__122__compressed_pair_elemINS_9allocatorIcEELi1ELb1EEC2B8ue170006ENS_18__default_init_tagE, symObjAddr: 0x694, symBinAddr: 0x100003608, symSize: 0x2C }
  - { offsetInCU: 0x6B7B, offset: 0x6B7B, size: 0x8, addend: 0x0, symName: __ZNSt3__19allocatorIcEC2B8ue170006Ev, symObjAddr: 0x6C0, symBinAddr: 0x100003634, symSize: 0x2C }
  - { offsetInCU: 0x6BA3, offset: 0x6BA3, size: 0x8, addend: 0x0, symName: __ZNSt3__116__non_trivial_ifILb1ENS_9allocatorIcEEEC2B8ue170006Ev, symObjAddr: 0x6EC, symBinAddr: 0x100003660, symSize: 0x14 }
  - { offsetInCU: 0x6BCB, offset: 0x6BCB, size: 0x8, addend: 0x0, symName: __ZNSt3__16chrono8durationIxNS_5ratioILl1ELl1EEEE4zeroB8ue170006Ev, symObjAddr: 0x760, symBinAddr: 0x1000036D4, symSize: 0x3C }
  - { offsetInCU: 0x6BDE, offset: 0x6BDE, size: 0x8, addend: 0x0, symName: __ZNSt3__16chrono8durationIxNS_5ratioILl1ELl1000000000EEEEppB8ue170006Ev, symObjAddr: 0x834, symBinAddr: 0x1000037A8, symSize: 0x20 }
  - { offsetInCU: 0x6C02, offset: 0x6C02, size: 0x8, addend: 0x0, symName: __ZNSt3__16chrono8durationIxNS_5ratioILl1ELl1000000000EEEE3maxB8ue170006Ev, symObjAddr: 0x854, symBinAddr: 0x1000037C8, symSize: 0x3C }
  - { offsetInCU: 0x6C1F, offset: 0x6C1F, size: 0x8, addend: 0x0, symName: __ZNKSt3__16chrono13__duration_ltINS0_8durationIxNS_5ratioILl1ELl1EEEEES5_EclB8ue170006ERKS5_S8_, symObjAddr: 0x8C4, symBinAddr: 0x100003838, symSize: 0x4C }
  - { offsetInCU: 0x6C61, offset: 0x6C61, size: 0x8, addend: 0x0, symName: __ZNKSt3__16chrono8durationIxNS_5ratioILl1ELl1EEEE5countB8ue170006Ev, symObjAddr: 0x910, symBinAddr: 0x100003884, symSize: 0x18 }
  - { offsetInCU: 0x6C85, offset: 0x6C85, size: 0x8, addend: 0x0, symName: __ZNSt3__16chrono15duration_valuesIxE4zeroB8ue170006Ev, symObjAddr: 0x928, symBinAddr: 0x10000389C, symSize: 0x8 }
  - { offsetInCU: 0x6CA2, offset: 0x6CA2, size: 0x8, addend: 0x0, symName: __ZNSt3__16chrono8durationIxNS_5ratioILl1ELl1EEEEC1B8ue170006IxEERKT_PNS_9enable_ifIXaasr14is_convertibleIS8_xEE5valueooL_ZNS_17integral_constantIbLb0EE5valueEEntsr23treat_as_floating_pointIS6_EE5valueEvE4typeE, symObjAddr: 0x930, symBinAddr: 0x1000038A4, symSize: 0x3C }
  - { offsetInCU: 0x6CEC, offset: 0x6CEC, size: 0x8, addend: 0x0, symName: __ZNSt3__16chrono8durationIxNS_5ratioILl1ELl1EEEEC2B8ue170006IxEERKT_PNS_9enable_ifIXaasr14is_convertibleIS8_xEE5valueooL_ZNS_17integral_constantIbLb0EE5valueEEntsr23treat_as_floating_pointIS6_EE5valueEvE4typeE, symObjAddr: 0x96C, symBinAddr: 0x1000038E0, symSize: 0x28 }
  - { offsetInCU: 0x6D36, offset: 0x6D36, size: 0x8, addend: 0x0, symName: __ZNSt3__16chrono8durationIeNS_5ratioILl1ELl1EEEEC1B8ue170006IxS3_EERKNS1_IT_T0_EEPNS_9enable_ifIXaasr13__no_overflowIS7_S3_EE5valueooL_ZNS_17integral_constantIbLb1EE5valueEEaaeqsr13__no_overflowIS7_S3_E4typeE3denLi1Entsr23treat_as_floating_pointIS6_EE5valueEvE4typeE, symObjAddr: 0xA00, symBinAddr: 0x100003974, symSize: 0x3C }
  - { offsetInCU: 0x6D8A, offset: 0x6D8A, size: 0x8, addend: 0x0, symName: __ZNKSt3__16chrono8durationIeNS_5ratioILl1ELl1EEEE5countB8ue170006Ev, symObjAddr: 0xA3C, symBinAddr: 0x1000039B0, symSize: 0x18 }
  - { offsetInCU: 0x6DAE, offset: 0x6DAE, size: 0x8, addend: 0x0, symName: __ZNSt3__16chrono8durationIeNS_5ratioILl1ELl1EEEEC2B8ue170006IxS3_EERKNS1_IT_T0_EEPNS_9enable_ifIXaasr13__no_overflowIS7_S3_EE5valueooL_ZNS_17integral_constantIbLb1EE5valueEEaaeqsr13__no_overflowIS7_S3_E4typeE3denLi1Entsr23treat_as_floating_pointIS6_EE5valueEvE4typeE, symObjAddr: 0xA54, symBinAddr: 0x1000039C8, symSize: 0x48 }
  - { offsetInCU: 0x6E0C, offset: 0x6E0C, size: 0x8, addend: 0x0, symName: __ZNKSt3__16chrono15__duration_castINS0_8durationIxNS_5ratioILl1ELl1EEEEENS2_IeS4_EES4_Lb1ELb1EEclB8ue170006ERKS5_, symObjAddr: 0xACC, symBinAddr: 0x100003A40, symSize: 0x44 }
  - { offsetInCU: 0x6E48, offset: 0x6E48, size: 0x8, addend: 0x0, symName: __ZNSt3__16chrono8durationIeNS_5ratioILl1ELl1EEEEC1B8ue170006IeEERKT_PNS_9enable_ifIXaasr14is_convertibleIS8_eEE5valueooL_ZNS_17integral_constantIbLb1EE5valueEEntsr23treat_as_floating_pointIS6_EE5valueEvE4typeE, symObjAddr: 0xB10, symBinAddr: 0x100003A84, symSize: 0x3C }
  - { offsetInCU: 0x6E92, offset: 0x6E92, size: 0x8, addend: 0x0, symName: __ZNSt3__16chrono8durationIeNS_5ratioILl1ELl1EEEEC2B8ue170006IeEERKT_PNS_9enable_ifIXaasr14is_convertibleIS8_eEE5valueooL_ZNS_17integral_constantIbLb1EE5valueEEntsr23treat_as_floating_pointIS6_EE5valueEvE4typeE, symObjAddr: 0xB4C, symBinAddr: 0x100003AC0, symSize: 0x28 }
  - { offsetInCU: 0x6EDC, offset: 0x6EDC, size: 0x8, addend: 0x0, symName: __ZNSt3__16chrono8durationIxNS_5ratioILl1ELl1000000000EEEEC1B8ue170006IxEERKT_PNS_9enable_ifIXaasr14is_convertibleIS8_xEE5valueooL_ZNS_17integral_constantIbLb0EE5valueEEntsr23treat_as_floating_pointIS6_EE5valueEvE4typeE, symObjAddr: 0xBC0, symBinAddr: 0x100003B34, symSize: 0x3C }
  - { offsetInCU: 0x6F26, offset: 0x6F26, size: 0x8, addend: 0x0, symName: __ZNSt3__16chrono8durationIxNS_5ratioILl1ELl1000000000EEEEC2B8ue170006IxEERKT_PNS_9enable_ifIXaasr14is_convertibleIS8_xEE5valueooL_ZNS_17integral_constantIbLb0EE5valueEEntsr23treat_as_floating_pointIS6_EE5valueEvE4typeE, symObjAddr: 0xBFC, symBinAddr: 0x100003B70, symSize: 0x28 }
  - { offsetInCU: 0x6F70, offset: 0x6F70, size: 0x8, addend: 0x0, symName: __ZNKSt3__16chrono8durationIxNS_5ratioILl1ELl1000000000EEEE5countB8ue170006Ev, symObjAddr: 0xC90, symBinAddr: 0x100003C04, symSize: 0x18 }
  - { offsetInCU: 0x6F94, offset: 0x6F94, size: 0x8, addend: 0x0, symName: __ZNSt3__16chrono8durationIxNS_5ratioILl1ELl1000000000EEEEC1B8ue170006IxNS2_ILl1ELl1EEEEERKNS1_IT_T0_EEPNS_9enable_ifIXaasr13__no_overflowIS8_S3_EE5valueooL_ZNS_17integral_constantIbLb0EE5valueEEaaeqsr13__no_overflowIS8_S3_E4typeE3denLi1Entsr23treat_as_floating_pointIS7_EE5valueEvE4typeE, symObjAddr: 0xCA8, symBinAddr: 0x100003C1C, symSize: 0x3C }
  - { offsetInCU: 0x6FE8, offset: 0x6FE8, size: 0x8, addend: 0x0, symName: __ZNSt3__16chrono8durationIxNS_5ratioILl1ELl1000000000EEEEC2B8ue170006IxNS2_ILl1ELl1EEEEERKNS1_IT_T0_EEPNS_9enable_ifIXaasr13__no_overflowIS8_S3_EE5valueooL_ZNS_17integral_constantIbLb0EE5valueEEaaeqsr13__no_overflowIS8_S3_E4typeE3denLi1Entsr23treat_as_floating_pointIS7_EE5valueEvE4typeE, symObjAddr: 0xCE4, symBinAddr: 0x100003C58, symSize: 0x50 }
  - { offsetInCU: 0x703C, offset: 0x703C, size: 0x8, addend: 0x0, symName: __ZNSt3__16chrono15duration_valuesIxE3maxB8ue170006Ev, symObjAddr: 0xD34, symBinAddr: 0x100003CA8, symSize: 0x14 }
  - { offsetInCU: 0x704F, offset: 0x704F, size: 0x8, addend: 0x0, symName: __ZNSt3__114numeric_limitsIxE3maxB8ue170006Ev, symObjAddr: 0xD48, symBinAddr: 0x100003CBC, symSize: 0x14 }
  - { offsetInCU: 0x7062, offset: 0x7062, size: 0x8, addend: 0x0, symName: __ZNSt3__123__libcpp_numeric_limitsIxLb1EE3maxB8ue170006Ev, symObjAddr: 0xD5C, symBinAddr: 0x100003CD0, symSize: 0x8 }
...
